; Function Attrs: nounwind uwtable
define dso_local range(i32 -1, 1) i32 @git_config_color(ptr noundef %0, ptr noundef %1, ptr noundef %2) local_unnamed_addr #0 {
  %.not = icmp eq ptr %2, null
  br i1 %.not, label %4, label %9

4:                                                ; preds = %3
  %5 = load i32, ptr @git_gettext_enabled, align 4, !tbaa !14
  %.not4.i.i = icmp eq i32 %5, 0
  br i1 %.not4.i.i, label %config_error_nonbool.exit, label %6

6:                                                ; preds = %4
  %7 = tail call ptr @dcgettext(ptr noundef null, ptr noundef nonnull @.str.74, i32 noundef 5) #30
  br label %config_error_nonbool.exit

config_error_nonbool.exit:                        ; preds = %4, %6
  %.0.i.i = phi ptr [ %7, %6 ], [ @.str.74, %4 ]
  %8 = tail call i32 (ptr, ...) @error(ptr noundef %.0.i.i, ptr noundef %1) #30
  br label %11

9:                                                ; preds = %3
  %10 = tail call i32 @color_parse(ptr noundef nonnull %2, ptr noundef %0) #30
  %.lobit = ashr i32 %10, 31
  br label %11

11:                                               ; preds = %9, %config_error_nonbool.exit
  %.0 = phi i32 [ -1, %config_error_nonbool.exit ], [ %.lobit, %9 ]
  ret i32 %.0
}